target datalayout = "e-m:e-p270:32:32-p271:32:32-p272:64:64-i64:64-i128:128-f80:128-n8:16:32:64-S128"
target triple = "x86_64-pc-linux-gnu"

%"struct.cv::gapi::fluid::View::Cache" = type <{ %"class.std::vector", %"struct.cv::GMatDesc", i32, [4 x i8] }>
%"class.std::vector" = type { %"struct.std::_Vector_base" }
%"struct.std::_Vector_base" = type { %"struct.std::_Vector_base<const unsigned char *, std::allocator<const unsigned char *>>::_Vector_impl" }
%"struct.std::_Vector_base<const unsigned char *, std::allocator<const unsigned char *>>::_Vector_impl" = type { %"struct.std::_Vector_base<const unsigned char *, std::allocator<const unsigned char *>>::_Vector_impl_data" }
%"struct.std::_Vector_base<const unsigned char *, std::allocator<const unsigned char *>>::_Vector_impl_data" = type { ptr, ptr, ptr }
%"struct.cv::GMatDesc" = type { i32, i32, %"class.cv::Size_", i8, %"class.std::vector.5" }
%"class.cv::Size_" = type { i32, i32 }
%"class.std::vector.5" = type { %"struct.std::_Vector_base.6" }
%"struct.std::_Vector_base.6" = type { %"struct.std::_Vector_base<int, std::allocator<int>>::_Vector_impl" }
%"struct.std::_Vector_base<int, std::allocator<int>>::_Vector_impl" = type { %"struct.std::_Vector_base<int, std::allocator<int>>::_Vector_impl_data" }
%"struct.std::_Vector_base<int, std::allocator<int>>::_Vector_impl_data" = type { ptr, ptr, ptr }
%"class.cv::gapi::fluid::View::Priv" = type <{ ptr, %"struct.cv::gapi::fluid::View::Cache", ptr, i32, i32, i32, [4 x i8] }>

; Function Attrs: mustprogress nounwind uwtable
define linkonce_odr hidden void @_ZN2cv4util23suppress_unused_warningIbEEvRKT_(ptr noundef nonnull align 1 dereferenceable(1) %0) #8 comdat {
  %2 = alloca ptr, align 8
  store ptr %0, ptr %2, align 8, !tbaa !103
  ret void
}

; Function Attrs: mustprogress uwtable
define void @_ZN2cv4gapi5fluid4View4Priv8readDoneEii(ptr noundef nonnull align 8 dereferenceable(108) %0, i32 noundef %1, i32 noundef %2) #4 align 2 {
  %4 = alloca ptr, align 8
  %5 = alloca i32, align 4
  %6 = alloca i32, align 4
  %7 = alloca i8, align 1
  store ptr %0, ptr %4, align 8, !tbaa !105
  store i32 %1, ptr %5, align 4, !tbaa !20
  store i32 %2, ptr %6, align 4, !tbaa !20
  %8 = load ptr, ptr %4, align 8
  call void @llvm.lifetime.start.p0(i64 1, ptr %7) #3
  store i8 0, ptr %7, align 1, !tbaa !102
  call void @_ZN2cv4util23suppress_unused_warningIbEEvRKT_(ptr noundef nonnull align 1 dereferenceable(1) %7)
  call void @llvm.lifetime.end.p0(i64 1, ptr %7) #3
  %9 = load i32, ptr %5, align 4, !tbaa !20
  %10 = getelementptr inbounds nuw %"class.cv::gapi::fluid::View::Priv", ptr %8, i32 0, i32 3
  %11 = load i32, ptr %10, align 8, !tbaa !111
  %12 = add nsw i32 %11, %9
  store i32 %12, ptr %10, align 8, !tbaa !111
  %13 = load i32, ptr %6, align 4, !tbaa !20
  %14 = getelementptr inbounds nuw %"class.cv::gapi::fluid::View::Priv", ptr %8, i32 0, i32 4
  store i32 %13, ptr %14, align 4, !tbaa !107
  ret void
}