; Function Attrs: mustprogress nofree norecurse nosync nounwind willreturn memory(argmem: readwrite) uwtable
define void @_ZN2cv4gapi5fluid4View4Priv8readDoneEii(ptr noundef nonnull align 8 captures(none) dereferenceable(108) initializes((100, 104)) %0, i32 noundef %1, i32 noundef %2) local_unnamed_addr #14 align 2 {
  %4 = getelementptr inbounds nuw i8, ptr %0, i64 96
  %5 = load i32, ptr %4, align 8, !tbaa !109
  %6 = add nsw i32 %5, %1
  store i32 %6, ptr %4, align 8, !tbaa !109
  %7 = getelementptr inbounds nuw i8, ptr %0, i64 100
  store i32 %2, ptr %7, align 4, !tbaa !85
  ret void
}